target datalayout = "e-m:e-p270:32:32-p271:32:32-p272:64:64-i64:64-i128:128-f80:128-n8:16:32:64-S128"
target triple = "x86_64-pc-linux-gnu"

%struct.crypto_ex_data_st = type { ptr }

@.str = private unnamed_addr constant [120 x i8] c"generated/home/dtcxzyw/WorkSpace/Projects/compilers/llvm-opt-benchmark/bench/libquic/libquic/boringssl/crypto/ex_data.c\00", align 1

; Function Attrs: nounwind uwtable
define hidden i32 @CRYPTO_set_ex_data(ptr noundef %0, i32 noundef %1, ptr noundef %2) #0 {
  %4 = alloca i32, align 4
  %5 = alloca ptr, align 8
  %6 = alloca i32, align 4
  %7 = alloca ptr, align 8
  %8 = alloca i32, align 4
  %9 = alloca i32, align 4
  %10 = alloca i32, align 4
  store ptr %0, ptr %5, align 8, !tbaa !28
  store i32 %1, ptr %6, align 4, !tbaa !14
  store ptr %2, ptr %7, align 8, !tbaa !6
  call void @llvm.lifetime.start.p0(i64 4, ptr %8) #5
  call void @llvm.lifetime.start.p0(i64 4, ptr %9) #5
  %11 = load ptr, ptr %5, align 8, !tbaa !28
  %12 = getelementptr inbounds nuw %struct.crypto_ex_data_st, ptr %11, i32 0, i32 0
  %13 = load ptr, ptr %12, align 8, !tbaa !30
  %14 = icmp eq ptr %13, null
  br i1 %14, label %15, label %25

15:                                               ; preds = %3
  %16 = call ptr @sk_new_null()
  %17 = load ptr, ptr %5, align 8, !tbaa !28
  %18 = getelementptr inbounds nuw %struct.crypto_ex_data_st, ptr %17, i32 0, i32 0
  store ptr %16, ptr %18, align 8, !tbaa !30
  %19 = load ptr, ptr %5, align 8, !tbaa !28
  %20 = getelementptr inbounds nuw %struct.crypto_ex_data_st, ptr %19, i32 0, i32 0
  %21 = load ptr, ptr %20, align 8, !tbaa !30
  %22 = icmp eq ptr %21, null
  br i1 %22, label %23, label %24

23:                                               ; preds = %15
  call void @ERR_put_error(i32 noundef 14, i32 noundef 0, i32 noundef 65, ptr noundef @.str, i32 noundef 176)
  store i32 0, ptr %4, align 4
  store i32 1, ptr %10, align 4
  br label %55

24:                                               ; preds = %15
  br label %25

25:                                               ; preds = %24, %3
  %26 = load ptr, ptr %5, align 8, !tbaa !28
  %27 = getelementptr inbounds nuw %struct.crypto_ex_data_st, ptr %26, i32 0, i32 0
  %28 = load ptr, ptr %27, align 8, !tbaa !30
  %29 = call i64 @sk_num(ptr noundef %28)
  %30 = trunc i64 %29 to i32
  store i32 %30, ptr %8, align 4, !tbaa !14
  %31 = load i32, ptr %8, align 4, !tbaa !14
  store i32 %31, ptr %9, align 4, !tbaa !14
  br label %32

32:                                               ; preds = %44, %25
  %33 = load i32, ptr %9, align 4, !tbaa !14
  %34 = load i32, ptr %6, align 4, !tbaa !14
  %35 = icmp sle i32 %33, %34
  br i1 %35, label %36, label %47

36:                                               ; preds = %32
  %37 = load ptr, ptr %5, align 8, !tbaa !28
  %38 = getelementptr inbounds nuw %struct.crypto_ex_data_st, ptr %37, i32 0, i32 0
  %39 = load ptr, ptr %38, align 8, !tbaa !30
  %40 = call i64 @sk_push(ptr noundef %39, ptr noundef null)
  %41 = icmp ne i64 %40, 0
  br i1 %41, label %43, label %42

42:                                               ; preds = %36
  call void @ERR_put_error(i32 noundef 14, i32 noundef 0, i32 noundef 65, ptr noundef @.str, i32 noundef 186)
  store i32 0, ptr %4, align 4
  store i32 1, ptr %10, align 4
  br label %55

43:                                               ; preds = %36
  br label %44

44:                                               ; preds = %43
  %45 = load i32, ptr %9, align 4, !tbaa !14
  %46 = add nsw i32 %45, 1
  store i32 %46, ptr %9, align 4, !tbaa !14
  br label %32, !llvm.loop !33

47:                                               ; preds = %32
  %48 = load ptr, ptr %5, align 8, !tbaa !28
  %49 = getelementptr inbounds nuw %struct.crypto_ex_data_st, ptr %48, i32 0, i32 0
  %50 = load ptr, ptr %49, align 8, !tbaa !30
  %51 = load i32, ptr %6, align 4, !tbaa !14
  %52 = sext i32 %51 to i64
  %53 = load ptr, ptr %7, align 8, !tbaa !6
  %54 = call ptr @sk_set(ptr noundef %50, i64 noundef %52, ptr noundef %53)
  store i32 1, ptr %4, align 4
  store i32 1, ptr %10, align 4
  br label %55

55:                                               ; preds = %47, %42, %23
  call void @llvm.lifetime.end.p0(i64 4, ptr %9) #5
  call void @llvm.lifetime.end.p0(i64 4, ptr %8) #5
  %56 = load i32, ptr %4, align 4
  ret i32 %56
}