; Function Attrs: nounwind uwtable
define hidden range(i32 0, 2) i32 @CRYPTO_set_ex_data(ptr noundef captures(none) %0, i32 noundef %1, ptr noundef %2) local_unnamed_addr #0 {
  %4 = load ptr, ptr %0, align 8, !tbaa !22
  %5 = icmp eq ptr %4, null
  br i1 %5, label %6, label %10

6:                                                ; preds = %3
  %7 = tail call ptr @sk_new_null() #8
  store ptr %7, ptr %0, align 8, !tbaa !22
  %8 = icmp eq ptr %7, null
  br i1 %8, label %9, label %10

9:                                                ; preds = %6
  tail call void @ERR_put_error(i32 noundef 14, i32 noundef 0, i32 noundef 65, ptr noundef nonnull @.str, i32 noundef 176) #8
  br label %22

10:                                               ; preds = %6, %3
  %11 = phi ptr [ %7, %6 ], [ %4, %3 ]
  %12 = tail call i64 @sk_num(ptr noundef nonnull %11) #8
  %13 = trunc i64 %12 to i32
  %.not15 = icmp slt i32 %1, %13
  br i1 %.not15, label %._crit_edge, label %.lr.ph

14:                                               ; preds = %.lr.ph
  %15 = add i32 %.016, 1
  %exitcond.not = icmp eq i32 %.016, %1
  br i1 %exitcond.not, label %._crit_edge, label %.lr.ph, !llvm.loop !25

.lr.ph:                                           ; preds = %10, %14
  %.016 = phi i32 [ %15, %14 ], [ %13, %10 ]
  %16 = load ptr, ptr %0, align 8, !tbaa !22
  %17 = tail call i64 @sk_push(ptr noundef %16, ptr noundef null) #8
  %.not14 = icmp eq i64 %17, 0
  br i1 %.not14, label %18, label %14

18:                                               ; preds = %.lr.ph
  tail call void @ERR_put_error(i32 noundef 14, i32 noundef 0, i32 noundef 65, ptr noundef nonnull @.str, i32 noundef 186) #8
  br label %22

._crit_edge:                                      ; preds = %14, %10
  %19 = load ptr, ptr %0, align 8, !tbaa !22
  %20 = sext i32 %1 to i64
  %21 = tail call ptr @sk_set(ptr noundef %19, i64 noundef %20, ptr noundef %2) #8
  br label %22

22:                                               ; preds = %._crit_edge, %18, %9
  %.012 = phi i32 [ 0, %9 ], [ 0, %18 ], [ 1, %._crit_edge ]
  ret i32 %.012
}